; ModuleID = '52/4029.c'
source_filename = "52/4029.c"
target datalayout = "e-m:e-p270:32:32-p271:32:32-p272:64:64-i64:64-f80:128-n8:16:32:64-S128"
target triple = "x86_64-pc-linux-gnu"

@.str = private unnamed_addr constant [5 x i8] c"%d%d\00", align 1
@.str.1 = private unnamed_addr constant [3 x i8] c"%d\00", align 1
@.str.2 = private unnamed_addr constant [4 x i8] c" %d\00", align 1
@.str.3 = private unnamed_addr constant [2 x i8] c"\0A\00", align 1

; Function Attrs: noinline nounwind uwtable
define dso_local i32 @main() #0 {
  %1 = alloca i32, align 4
  %2 = alloca i32, align 4
  %3 = alloca i32, align 4
  %4 = alloca [100 x i32], align 16
  %5 = alloca [100 x i32], align 16
  %6 = alloca i32*, align 8
  %7 = alloca i32, align 4
  %8 = alloca i32, align 4
  %9 = alloca i32, align 4
  %10 = alloca i32, align 4
  store i32 0, i32* %1, align 4
  %11 = call i32 (i8*, ...) @__isoc99_scanf(i8* getelementptr inbounds ([5 x i8], [5 x i8]* @.str, i64 0, i64 0), i32* %2, i32* %3)
  store i32 0, i32* %7, align 4
  br label %12

12:                                               ; preds = %21, %0
  %13 = load i32, i32* %7, align 4
  %14 = load i32, i32* %2, align 4
  %15 = icmp slt i32 %13, %14
  br i1 %15, label %16, label %24

16:                                               ; preds = %12
  %17 = load i32, i32* %7, align 4
  %18 = sext i32 %17 to i64
  %19 = getelementptr inbounds [100 x i32], [100 x i32]* %4, i64 0, i64 %18
  %20 = call i32 (i8*, ...) @__isoc99_scanf(i8* getelementptr inbounds ([3 x i8], [3 x i8]* @.str.1, i64 0, i64 0), i32* %19)
  br label %21

21:                                               ; preds = %16
  %22 = load i32, i32* %7, align 4
  %23 = add nsw i32 %22, 1
  store i32 %23, i32* %7, align 4
  br label %12

24:                                               ; preds = %12
  %25 = load i32, i32* %2, align 4
  %26 = load i32, i32* %3, align 4
  %27 = sub nsw i32 %25, %26
  %28 = sext i32 %27 to i64
  %29 = getelementptr inbounds [100 x i32], [100 x i32]* %4, i64 0, i64 %28
  store i32* %29, i32** %6, align 8
  %30 = load i32, i32* %2, align 4
  %31 = load i32, i32* %3, align 4
  %32 = sub nsw i32 %30, %31
  store i32 %32, i32* %7, align 4
  br label %33

33:                                               ; preds = %48, %24
  %34 = load i32, i32* %7, align 4
  %35 = load i32, i32* %2, align 4
  %36 = icmp slt i32 %34, %35
  br i1 %36, label %37, label %51

37:                                               ; preds = %33
  %38 = load i32*, i32** %6, align 8
  %39 = getelementptr inbounds i32, i32* %38, i32 1
  store i32* %39, i32** %6, align 8
  %40 = load i32, i32* %38, align 4
  %41 = load i32, i32* %7, align 4
  %42 = load i32, i32* %2, align 4
  %43 = sub nsw i32 %41, %42
  %44 = load i32, i32* %3, align 4
  %45 = add nsw i32 %43, %44
  %46 = sext i32 %45 to i64
  %47 = getelementptr inbounds [100 x i32], [100 x i32]* %5, i64 0, i64 %46
  store i32 %40, i32* %47, align 4
  br label %48

48:                                               ; preds = %37
  %49 = load i32, i32* %7, align 4
  %50 = add nsw i32 %49, 1
  store i32 %50, i32* %7, align 4
  br label %33

51:                                               ; preds = %33
  store i32 0, i32* %8, align 4
  br label %52

52:                                               ; preds = %82, %51
  %53 = load i32, i32* %8, align 4
  %54 = load i32, i32* %3, align 4
  %55 = icmp slt i32 %53, %54
  br i1 %55, label %56, label %85

56:                                               ; preds = %52
  %57 = load i32, i32* %8, align 4
  store i32 %57, i32* %7, align 4
  %58 = load i32, i32* %7, align 4
  %59 = sext i32 %58 to i64
  %60 = getelementptr inbounds [100 x i32], [100 x i32]* %4, i64 0, i64 %59
  %61 = load i32, i32* %60, align 4
  store i32 %61, i32* %9, align 4
  br label %62

62:                                               ; preds = %78, %56
  %63 = load i32, i32* %7, align 4
  %64 = load i32, i32* %2, align 4
  %65 = icmp slt i32 %63, %64
  br i1 %65, label %66, label %81

66:                                               ; preds = %62
  %67 = load i32, i32* %7, align 4
  %68 = add nsw i32 %67, 1
  %69 = sext i32 %68 to i64
  %70 = getelementptr inbounds [100 x i32], [100 x i32]* %4, i64 0, i64 %69
  %71 = load i32, i32* %70, align 4
  store i32 %71, i32* %10, align 4
  %72 = load i32, i32* %9, align 4
  %73 = load i32, i32* %7, align 4
  %74 = add nsw i32 %73, 1
  %75 = sext i32 %74 to i64
  %76 = getelementptr inbounds [100 x i32], [100 x i32]* %4, i64 0, i64 %75
  store i32 %72, i32* %76, align 4
  %77 = load i32, i32* %10, align 4
  store i32 %77, i32* %9, align 4
  br label %78

78:                                               ; preds = %66
  %79 = load i32, i32* %7, align 4
  %80 = add nsw i32 %79, 1
  store i32 %80, i32* %7, align 4
  br label %62

81:                                               ; preds = %62
  br label %82

82:                                               ; preds = %81
  %83 = load i32, i32* %8, align 4
  %84 = add nsw i32 %83, 1
  store i32 %84, i32* %8, align 4
  br label %52

85:                                               ; preds = %52
  store i32 0, i32* %7, align 4
  br label %86

86:                                               ; preds = %98, %85
  %87 = load i32, i32* %7, align 4
  %88 = load i32, i32* %3, align 4
  %89 = icmp slt i32 %87, %88
  br i1 %89, label %90, label %101

90:                                               ; preds = %86
  %91 = load i32, i32* %7, align 4
  %92 = sext i32 %91 to i64
  %93 = getelementptr inbounds [100 x i32], [100 x i32]* %5, i64 0, i64 %92
  %94 = load i32, i32* %93, align 4
  %95 = load i32, i32* %7, align 4
  %96 = sext i32 %95 to i64
  %97 = getelementptr inbounds [100 x i32], [100 x i32]* %4, i64 0, i64 %96
  store i32 %94, i32* %97, align 4
  br label %98

98:                                               ; preds = %90
  %99 = load i32, i32* %7, align 4
  %100 = add nsw i32 %99, 1
  store i32 %100, i32* %7, align 4
  br label %86

101:                                              ; preds = %86
  %102 = getelementptr inbounds [100 x i32], [100 x i32]* %4, i64 0, i64 0
  %103 = load i32, i32* %102, align 16
  %104 = call i32 (i8*, ...) @printf(i8* getelementptr inbounds ([3 x i8], [3 x i8]* @.str.1, i64 0, i64 0), i32 %103)
  %105 = getelementptr inbounds [100 x i32], [100 x i32]* %4, i64 0, i64 1
  store i32* %105, i32** %6, align 8
  store i32 1, i32* %7, align 4
  br label %106

106:                                              ; preds = %115, %101
  %107 = load i32, i32* %7, align 4
  %108 = load i32, i32* %2, align 4
  %109 = icmp slt i32 %107, %108
  br i1 %109, label %110, label %118

110:                                              ; preds = %106
  %111 = load i32*, i32** %6, align 8
  %112 = getelementptr inbounds i32, i32* %111, i32 1
  store i32* %112, i32** %6, align 8
  %113 = load i32, i32* %111, align 4
  %114 = call i32 (i8*, ...) @printf(i8* getelementptr inbounds ([4 x i8], [4 x i8]* @.str.2, i64 0, i64 0), i32 %113)
  br label %115

115:                                              ; preds = %110
  %116 = load i32, i32* %7, align 4
  %117 = add nsw i32 %116, 1
  store i32 %117, i32* %7, align 4
  br label %106

118:                                              ; preds = %106
  %119 = call i32 (i8*, ...) @printf(i8* getelementptr inbounds ([2 x i8], [2 x i8]* @.str.3, i64 0, i64 0))
  ret i32 0
}

declare dso_local i32 @__isoc99_scanf(i8*, ...) #1

declare dso_local i32 @printf(i8*, ...) #1


!llvm.module.flags = !{!0}
!llvm.ident = !{!1}

!0 = !{i32 1, !"wchar_size", i32 4}
!1 = !{!"clang version 10.0.0-4ubuntu1 "}
